; Function Attrs: mustprogress nounwind uwtable
define dso_local void @_ZNK5clang14TypoCorrection11getAsStringB5cxx11ERKNS_11LangOptionsE(ptr dead_on_unwind noalias writable sret(%"class.std::__cxx11::basic_string") align 8 %0, ptr noundef nonnull align 8 dereferenceable(88) %1, ptr noundef nonnull readonly align 8 captures(none) dereferenceable(841) %2) local_unnamed_addr #0 align 2 {
  %4 = alloca %"class.std::__cxx11::basic_string", align 8
  %5 = alloca %"class.llvm::raw_string_ostream", align 8
  %6 = alloca %"struct.clang::PrintingPolicy", align 8
  %7 = getelementptr inbounds nuw i8, ptr %1, i64 8
  %8 = load ptr, ptr %7, align 8
  %.not = icmp eq ptr %8, null
  br i1 %.not, label %55, label %9

9:                                                ; preds = %3
  call void @_ZNSt7__cxx1112basic_stringIcSt11char_traitsIcESaIcEEC1Ev(ptr noundef nonnull align 8 dereferenceable(32) %4) #24
  %10 = getelementptr inbounds nuw i8, ptr %5, i64 8
  store i32 0, ptr %10, align 8
  %11 = getelementptr inbounds nuw i8, ptr %5, i64 40
  store i8 0, ptr %11, align 8
  %12 = getelementptr inbounds nuw i8, ptr %5, i64 44
  store i32 1, ptr %12, align 4
  %13 = getelementptr inbounds nuw i8, ptr %5, i64 16
  call void @llvm.memset.p0.i64(ptr noundef nonnull align 8 dereferenceable(24) %13, i8 0, i64 24, i1 false)
  store ptr getelementptr inbounds nuw inrange(-16, 104) (i8, ptr @_ZTVN4llvm18raw_string_ostreamE, i64 16), ptr %5, align 8
  %14 = getelementptr inbounds nuw i8, ptr %5, i64 48
  store ptr %4, ptr %14, align 8
  call void @_ZN4llvm11raw_ostream16SetBufferAndModeEPcmNS0_10BufferKindE(ptr noundef nonnull align 8 dereferenceable(56) %5, ptr noundef null, i64 noundef 0, i32 noundef 0) #24
  %15 = load ptr, ptr %7, align 8
  %16 = load i64, ptr %2, align 8
  %17 = lshr i64 %16, 2
  %18 = and i64 %17, 512
  %19 = lshr i64 %16, 4
  %20 = and i64 %19, 4194304
  %21 = and i64 %16, 4096
  %.not.i = icmp eq i64 %21, 0
  %22 = shl i64 %16, 20
  %23 = and i64 %22, 8388608
  %24 = select i1 %.not.i, i64 %23, i64 8388608
  %25 = shl i64 %16, 13
  %26 = and i64 %25, 16777216
  %27 = shl i64 %16, 25
  %28 = and i64 %27, 33554432
  %29 = shl i64 %16, 14
  %30 = and i64 %29, 67108864
  %31 = shl i64 %16, 26
  %32 = and i64 %31, 134217728
  %33 = shl i64 %16, 17
  %34 = and i64 %33, 805306368
  %35 = shl i64 %16, 5
  %36 = and i64 %35, 4294967296
  %37 = and i64 %16, 128
  %.not17.i = icmp eq i64 %37, 0
  %38 = and i64 %35, 8589934592
  %39 = xor i64 %38, 56100862820352
  %40 = select i1 %.not17.i, i64 56092272885760, i64 %39
  %41 = or disjoint i64 %18, %20
  %42 = or disjoint i64 %41, %26
  %43 = or disjoint i64 %42, %28
  %44 = or disjoint i64 %43, %30
  %.masked.masked.masked.masked.masked.masked = or disjoint i64 %44, %32
  %45 = getelementptr inbounds nuw i8, ptr %2, i64 88
  %46 = load i64, ptr %45, align 8
  %47 = shl i64 %46, 37
  %48 = and i64 %47, 70368744177664
  %.masked3.masked.masked.masked.masked.masked.masked.masked = or i64 %.masked.masked.masked.masked.masked.masked, %34
  %.masked.masked.masked.masked.masked.masked8.masked = or i64 %.masked3.masked.masked.masked.masked.masked.masked.masked, %36
  %.masked6.masked.masked.masked.masked.masked = or i64 %.masked.masked.masked.masked.masked.masked8.masked, %24
  %49 = or i64 %.masked6.masked.masked.masked.masked.masked, %40
  %50 = or i64 %49, %48
  %51 = xor i64 %50, 807542786
  store i64 %51, ptr %6, align 8
  %52 = getelementptr inbounds nuw i8, ptr %6, i64 8
  store ptr null, ptr %52, align 8
  call void @_ZNK5clang19NestedNameSpecifier5printERN4llvm11raw_ostreamERKNS_14PrintingPolicyEb(ptr noundef nonnull align 8 dereferenceable(24) %15, ptr noundef nonnull align 8 dereferenceable(48) %5, ptr noundef nonnull align 8 dereferenceable(16) %6, i1 noundef zeroext false) #24
  %.sroa.0.0.copyload = load i64, ptr %1, align 8
  %53 = call noundef nonnull align 8 dereferenceable(48) ptr @_ZN5clanglsERN4llvm11raw_ostreamENS_15DeclarationNameE(ptr noundef nonnull align 8 dereferenceable(48) %5, i64 %.sroa.0.0.copyload) #24
  %54 = load ptr, ptr %14, align 8
  call void @_ZNSt7__cxx1112basic_stringIcSt11char_traitsIcESaIcEEC1ERKS4_(ptr noundef nonnull align 8 dereferenceable(32) %0, ptr noundef nonnull align 8 dereferenceable(32) %54) #24
  call void @_ZN4llvm11raw_ostreamD2Ev(ptr noundef nonnull align 8 dereferenceable(56) %5) #24
  call void @_ZNSt7__cxx1112basic_stringIcSt11char_traitsIcESaIcEED1Ev(ptr noundef nonnull align 8 dereferenceable(32) %4) #24
  br label %56

55:                                               ; preds = %3
  tail call void @_ZNK5clang15DeclarationName11getAsStringB5cxx11Ev(ptr dead_on_unwind writable sret(%"class.std::__cxx11::basic_string") align 8 %0, ptr noundef nonnull align 8 dereferenceable(8) %1) #24
  br label %56

56:                                               ; preds = %55, %9
  ret void
}